; ModuleID = 'source-C-CXX/12/1386.c'
source_filename = "source-C-CXX/12/1386.c"
target datalayout = "e-m:e-p270:32:32-p271:32:32-p272:64:64-i64:64-f80:128-n8:16:32:64-S128"
target triple = "x86_64-pc-linux-gnu"

@.str = private unnamed_addr constant [3 x i8] c"%d\00", align 1
@.str.1 = private unnamed_addr constant [4 x i8] c" %d\00", align 1

; Function Attrs: nofree nounwind sspstrong uwtable
define dso_local i32 @main() local_unnamed_addr #0 {
  %1 = alloca i32, align 4
  %2 = alloca [20000 x i32], align 16
  %3 = alloca [100 x i32], align 16
  %4 = bitcast [100 x i32]* %3 to i8*
  %5 = bitcast i32* %1 to i8*
  call void @llvm.lifetime.start.p0i8(i64 4, i8* nonnull %5) #4
  %6 = bitcast [20000 x i32]* %2 to i8*
  call void @llvm.lifetime.start.p0i8(i64 80000, i8* nonnull %6) #4
  call void @llvm.lifetime.start.p0i8(i64 400, i8* nonnull %4) #4
  %7 = call i32 (i8*, ...) @__isoc99_scanf(i8* getelementptr inbounds ([3 x i8], [3 x i8]* @.str, i64 0, i64 0), i32* nonnull %1)
  call void @llvm.memset.p0i8.i64(i8* noundef nonnull align 16 dereferenceable(400) %4, i8 0, i64 400, i1 false)
  %8 = load i32, i32* %1, align 4, !tbaa !5
  %9 = icmp sgt i32 %8, 0
  br i1 %9, label %14, label %41

10:                                               ; preds = %24
  %11 = icmp sgt i32 %26, 0
  br i1 %11, label %12, label %41

12:                                               ; preds = %10
  %13 = zext i32 %26 to i64
  br label %29

14:                                               ; preds = %0, %24
  %15 = phi i64 [ %25, %24 ], [ 0, %0 ]
  %16 = getelementptr inbounds [20000 x i32], [20000 x i32]* %2, i64 0, i64 %15
  %17 = call i32 (i8*, ...) @__isoc99_scanf(i8* getelementptr inbounds ([3 x i8], [3 x i8]* @.str, i64 0, i64 0), i32* nonnull %16)
  %18 = load i32, i32* %16, align 4, !tbaa !5
  %19 = sext i32 %18 to i64
  %20 = getelementptr inbounds [100 x i32], [100 x i32]* %3, i64 0, i64 %19
  %21 = load i32, i32* %20, align 4, !tbaa !5
  switch i32 %21, label %24 [
    i32 0, label %22
    i32 1, label %23
  ]

22:                                               ; preds = %14
  store i32 1, i32* %20, align 4, !tbaa !5
  br label %24

23:                                               ; preds = %14
  store i32 101, i32* %16, align 4, !tbaa !5
  br label %24

24:                                               ; preds = %14, %22, %23
  %25 = add nuw nsw i64 %15, 1
  %26 = load i32, i32* %1, align 4, !tbaa !5
  %27 = sext i32 %26 to i64
  %28 = icmp slt i64 %25, %27
  br i1 %28, label %14, label %10, !llvm.loop !9

29:                                               ; preds = %12, %38
  %30 = phi i64 [ 0, %12 ], [ %39, %38 ]
  %31 = getelementptr inbounds [20000 x i32], [20000 x i32]* %2, i64 0, i64 %30
  %32 = load i32, i32* %31, align 4, !tbaa !5
  %33 = icmp eq i32 %32, 101
  br i1 %33, label %38, label %34

34:                                               ; preds = %29
  %35 = trunc i64 %30 to i32
  %36 = call i32 (i8*, ...) @printf(i8* nonnull dereferenceable(1) getelementptr inbounds ([3 x i8], [3 x i8]* @.str, i64 0, i64 0), i32 %32)
  %37 = load i32, i32* %1, align 4, !tbaa !5
  br label %41

38:                                               ; preds = %29
  %39 = add nuw nsw i64 %30, 1
  %40 = icmp eq i64 %39, %13
  br i1 %40, label %41, label %29, !llvm.loop !11

41:                                               ; preds = %38, %0, %10, %34
  %42 = phi i32 [ %37, %34 ], [ %26, %10 ], [ %8, %0 ], [ %26, %38 ]
  %43 = phi i32 [ %35, %34 ], [ 0, %10 ], [ 0, %0 ], [ %26, %38 ]
  %44 = add i32 %43, 1
  %45 = icmp slt i32 %44, %42
  br i1 %45, label %46, label %62

46:                                               ; preds = %41
  %47 = zext i32 %44 to i64
  br label %48

48:                                               ; preds = %46, %57
  %49 = phi i32 [ %42, %46 ], [ %58, %57 ]
  %50 = phi i64 [ %47, %46 ], [ %59, %57 ]
  %51 = getelementptr inbounds [20000 x i32], [20000 x i32]* %2, i64 0, i64 %50
  %52 = load i32, i32* %51, align 4, !tbaa !5
  %53 = icmp eq i32 %52, 101
  br i1 %53, label %57, label %54

54:                                               ; preds = %48
  %55 = call i32 (i8*, ...) @printf(i8* nonnull dereferenceable(1) getelementptr inbounds ([4 x i8], [4 x i8]* @.str.1, i64 0, i64 0), i32 %52)
  %56 = load i32, i32* %1, align 4, !tbaa !5
  br label %57

57:                                               ; preds = %48, %54
  %58 = phi i32 [ %49, %48 ], [ %56, %54 ]
  %59 = add nuw nsw i64 %50, 1
  %60 = trunc i64 %59 to i32
  %61 = icmp sgt i32 %58, %60
  br i1 %61, label %48, label %62, !llvm.loop !12

62:                                               ; preds = %57, %41
  call void @llvm.lifetime.end.p0i8(i64 400, i8* nonnull %4) #4
  call void @llvm.lifetime.end.p0i8(i64 80000, i8* nonnull %6) #4
  call void @llvm.lifetime.end.p0i8(i64 4, i8* nonnull %5) #4
  ret i32 0
}

; Function Attrs: argmemonly mustprogress nofree nosync nounwind willreturn
declare void @llvm.lifetime.start.p0i8(i64 immarg, i8* nocapture) #1

; Function Attrs: nofree nounwind
declare noundef i32 @__isoc99_scanf(i8* nocapture noundef readonly, ...) local_unnamed_addr #2

; Function Attrs: nofree nounwind
declare noundef i32 @printf(i8* nocapture noundef readonly, ...) local_unnamed_addr #2

; Function Attrs: argmemonly mustprogress nofree nosync nounwind willreturn
declare void @llvm.lifetime.end.p0i8(i64 immarg, i8* nocapture) #1

; Function Attrs: argmemonly nofree nounwind willreturn writeonly
declare void @llvm.memset.p0i8.i64(i8* nocapture writeonly, i8, i64, i1 immarg) #3


!llvm.module.flags = !{!0, !1, !2, !3}
!llvm.ident = !{!4}

!0 = !{i32 1, !"wchar_size", i32 4}
!1 = !{i32 7, !"PIC Level", i32 2}
!2 = !{i32 7, !"PIE Level", i32 2}
!3 = !{i32 7, !"uwtable", i32 1}
!4 = !{!"clang version 13.0.0"}
!5 = !{!6, !6, i64 0}
!6 = !{!"int", !7, i64 0}
!7 = !{!"omnipotent char", !8, i64 0}
!8 = !{!"Simple C/C++ TBAA"}
!9 = distinct !{!9, !10}
!10 = !{!"llvm.loop.mustprogress"}
!11 = distinct !{!11, !10}
!12 = distinct !{!12, !10}
